target datalayout = "e-m:e-p270:32:32-p271:32:32-p272:64:64-i64:64-i128:128-f80:128-n8:16:32:64-S128"
target triple = "x86_64-pc-linux-gnu"

@ossl_s_to_der = internal global i64 0, align 8

; Function Attrs: nounwind sspstrong uwtable
define i64 @ossl_to_der(i64 noundef %0) #0 {
  %2 = alloca i64, align 8
  %3 = alloca i64, align 8
  store i64 %0, ptr %2, align 8, !tbaa !6
  call void @llvm.lifetime.start.p0(i64 8, ptr %3) #22
  %4 = load i64, ptr %2, align 8, !tbaa !6
  %5 = load i64, ptr @ossl_s_to_der, align 8, !tbaa !6
  %6 = call i64 (i64, i64, i32, ...) @rb_funcall(i64 noundef %4, i64 noundef %5, i32 noundef 0)
  store i64 %6, ptr %3, align 8, !tbaa !6
  %7 = call i64 @rb_string_value(ptr noundef %3)
  %8 = load i64, ptr %3, align 8, !tbaa !6
  call void @llvm.lifetime.end.p0(i64 8, ptr %3) #22
  ret i64 %8
}