; Function Attrs: nounwind sspstrong uwtable
define i64 @ossl_to_der(i64 noundef %0) local_unnamed_addr #0 {
  %2 = alloca i64, align 8
  call void @llvm.lifetime.start.p0(i64 8, ptr nonnull %2) #15
  %3 = load i64, ptr @ossl_s_to_der, align 8, !tbaa !13
  %4 = tail call i64 (i64, i64, i32, ...) @rb_funcall(i64 noundef %0, i64 noundef %3, i32 noundef 0) #15
  store i64 %4, ptr %2, align 8, !tbaa !13
  %5 = call i64 @rb_string_value(ptr noundef nonnull %2) #15
  %6 = load i64, ptr %2, align 8, !tbaa !13
  call void @llvm.lifetime.end.p0(i64 8, ptr nonnull %2) #15
  ret i64 %6
}